target datalayout = "e-m:e-p270:32:32-p271:32:32-p272:64:64-i64:64-i128:128-f80:128-n8:16:32:64-S128"
target triple = "x86_64-pc-linux-gnu"

%"class.pxrInternal_v0_24__pxrReserved__::GfVec2d" = type { [2 x double] }
%"class.pxrInternal_v0_24__pxrReserved__::GfFrustum" = type { %"class.pxrInternal_v0_24__pxrReserved__::GfVec3d", %"class.pxrInternal_v0_24__pxrReserved__::GfRotation", %"class.pxrInternal_v0_24__pxrReserved__::GfRange2d", %"class.pxrInternal_v0_24__pxrReserved__::GfRange1d", double, i32, %"struct.std::atomic" }
%"class.pxrInternal_v0_24__pxrReserved__::GfVec3d" = type { [3 x double] }
%"class.pxrInternal_v0_24__pxrReserved__::GfRotation" = type { %"class.pxrInternal_v0_24__pxrReserved__::GfVec3d", double }
%"class.pxrInternal_v0_24__pxrReserved__::GfRange2d" = type { %"class.pxrInternal_v0_24__pxrReserved__::GfVec2d", %"class.pxrInternal_v0_24__pxrReserved__::GfVec2d" }
%"class.pxrInternal_v0_24__pxrReserved__::GfRange1d" = type { double, double }
%"struct.std::atomic" = type { %"struct.std::__atomic_base" }
%"struct.std::__atomic_base" = type { ptr }
%"class.pxrInternal_v0_24__pxrReserved__::GfPlane" = type { %"class.pxrInternal_v0_24__pxrReserved__::GfVec3d", double }
%"struct.std::array" = type { [6 x %"class.pxrInternal_v0_24__pxrReserved__::GfPlane"] }

; Function Attrs: mustprogress nounwind uwtable
define linkonce_odr noundef i32 @_ZStanSt12memory_orderSt23__memory_order_modifier(i32 noundef %0, i32 noundef %1) #2 comdat {
  %3 = alloca i32, align 4
  %4 = alloca i32, align 4
  store i32 %0, ptr %3, align 4
  store i32 %1, ptr %4, align 4
  %5 = load i32, ptr %3, align 4
  %6 = load i32, ptr %4, align 4
  %7 = and i32 %5, %6
  ret i32 %7
}

; Function Attrs: mustprogress nounwind uwtable
define linkonce_odr noundef nonnull align 8 dereferenceable(8) ptr @_ZNK32pxrInternal_v0_24__pxrReserved__7GfVec3dixEm(ptr noundef nonnull align 8 dereferenceable(24) %0, i64 noundef %1) #2 comdat align 2 {
  %3 = alloca ptr, align 8
  %4 = alloca i64, align 8
  store ptr %0, ptr %3, align 8
  store i64 %1, ptr %4, align 8
  %5 = load ptr, ptr %3, align 8
  %6 = getelementptr inbounds nuw %"class.pxrInternal_v0_24__pxrReserved__::GfVec3d", ptr %5, i32 0, i32 0
  %7 = load i64, ptr %4, align 8
  %8 = getelementptr inbounds [3 x double], ptr %6, i64 0, i64 %7
  ret ptr %8
}

; Function Attrs: mustprogress nounwind uwtable
define linkonce_odr noundef nonnull align 8 dereferenceable(32) ptr @_ZNSt14__array_traitsIN32pxrInternal_v0_24__pxrReserved__7GfPlaneELm6EE6_S_refERA6_KS1_m(ptr noundef nonnull align 8 dereferenceable(192) %0, i64 noundef %1) #2 comdat align 2 {
  %3 = alloca ptr, align 8
  %4 = alloca i64, align 8
  store ptr %0, ptr %3, align 8
  store i64 %1, ptr %4, align 8
  %5 = load ptr, ptr %3, align 8
  %6 = load i64, ptr %4, align 8
  %7 = getelementptr inbounds [6 x %"class.pxrInternal_v0_24__pxrReserved__::GfPlane"], ptr %5, i64 0, i64 %6
  ret ptr %7
}

; Function Attrs: mustprogress nounwind uwtable
define linkonce_odr noundef ptr @_ZNKSt13__atomic_baseIPSt5arrayIN32pxrInternal_v0_24__pxrReserved__7GfPlaneELm6EEEcvS4_Ev(ptr noundef nonnull align 8 dereferenceable(8) %0) #2 comdat align 2 {
  %2 = alloca ptr, align 8
  %3 = alloca i32, align 4
  %4 = alloca i32, align 4
  %5 = alloca ptr, align 8
  %6 = alloca ptr, align 8
  store ptr %0, ptr %6, align 8
  %7 = load ptr, ptr %6, align 8
  store ptr %7, ptr %2, align 8
  store i32 5, ptr %3, align 4
  %8 = load ptr, ptr %2, align 8
  %9 = load i32, ptr %3, align 4
  %10 = call noundef i32 @_ZStanSt12memory_orderSt23__memory_order_modifier(i32 noundef %9, i32 noundef 65535)
  store i32 %10, ptr %4, align 4
  %11 = load i32, ptr %3, align 4
  switch i32 %11, label %12 [
    i32 1, label %14
    i32 2, label %14
    i32 5, label %16
  ]

12:                                               ; preds = %1
  %13 = load atomic i64, ptr %8 monotonic, align 8
  store i64 %13, ptr %5, align 8
  br label %18

14:                                               ; preds = %1, %1
  %15 = load atomic i64, ptr %8 acquire, align 8
  store i64 %15, ptr %5, align 8
  br label %18

16:                                               ; preds = %1
  %17 = load atomic i64, ptr %8 seq_cst, align 8
  store i64 %17, ptr %5, align 8
  br label %18

18:                                               ; preds = %16, %14, %12
  %19 = load ptr, ptr %5, align 8
  ret ptr %19
}

; Function Attrs: mustprogress uwtable
define linkonce_odr noundef nonnull align 8 dereferenceable(24) ptr @_ZN32pxrInternal_v0_24__pxrReserved__7GfVec3dmIERKS0_(ptr noundef nonnull align 8 dereferenceable(24) %0, ptr noundef nonnull align 8 dereferenceable(24) %1) #0 comdat align 2 {
  %3 = alloca ptr, align 8
  %4 = alloca ptr, align 8
  store ptr %0, ptr %3, align 8
  store ptr %1, ptr %4, align 8
  %5 = load ptr, ptr %3, align 8
  %6 = load ptr, ptr %4, align 8
  %7 = call noundef nonnull align 8 dereferenceable(8) ptr @_ZNK32pxrInternal_v0_24__pxrReserved__7GfVec3dixEm(ptr noundef nonnull align 8 dereferenceable(24) %6, i64 noundef 0)
  %8 = load double, ptr %7, align 8
  %9 = getelementptr inbounds nuw %"class.pxrInternal_v0_24__pxrReserved__::GfVec3d", ptr %5, i32 0, i32 0
  %10 = getelementptr inbounds [3 x double], ptr %9, i64 0, i64 0
  %11 = load double, ptr %10, align 8
  %12 = fsub double %11, %8
  store double %12, ptr %10, align 8
  %13 = load ptr, ptr %4, align 8
  %14 = call noundef nonnull align 8 dereferenceable(8) ptr @_ZNK32pxrInternal_v0_24__pxrReserved__7GfVec3dixEm(ptr noundef nonnull align 8 dereferenceable(24) %13, i64 noundef 1)
  %15 = load double, ptr %14, align 8
  %16 = getelementptr inbounds nuw %"class.pxrInternal_v0_24__pxrReserved__::GfVec3d", ptr %5, i32 0, i32 0
  %17 = getelementptr inbounds [3 x double], ptr %16, i64 0, i64 1
  %18 = load double, ptr %17, align 8
  %19 = fsub double %18, %15
  store double %19, ptr %17, align 8
  %20 = load ptr, ptr %4, align 8
  %21 = call noundef nonnull align 8 dereferenceable(8) ptr @_ZNK32pxrInternal_v0_24__pxrReserved__7GfVec3dixEm(ptr noundef nonnull align 8 dereferenceable(24) %20, i64 noundef 2)
  %22 = load double, ptr %21, align 8
  %23 = getelementptr inbounds nuw %"class.pxrInternal_v0_24__pxrReserved__::GfVec3d", ptr %5, i32 0, i32 0
  %24 = getelementptr inbounds [3 x double], ptr %23, i64 0, i64 2
  %25 = load double, ptr %24, align 8
  %26 = fsub double %25, %22
  store double %26, ptr %24, align 8
  ret ptr %5
}

; Function Attrs: mustprogress uwtable
define linkonce_odr noundef double @_ZNK32pxrInternal_v0_24__pxrReserved__7GfVec3dmlERKS0_(ptr noundef nonnull align 8 dereferenceable(24) %0, ptr noundef nonnull align 8 dereferenceable(24) %1) #0 comdat align 2 {
  %3 = alloca ptr, align 8
  %4 = alloca ptr, align 8
  store ptr %0, ptr %3, align 8
  store ptr %1, ptr %4, align 8
  %5 = load ptr, ptr %3, align 8
  %6 = getelementptr inbounds nuw %"class.pxrInternal_v0_24__pxrReserved__::GfVec3d", ptr %5, i32 0, i32 0
  %7 = getelementptr inbounds [3 x double], ptr %6, i64 0, i64 0
  %8 = load double, ptr %7, align 8
  %9 = load ptr, ptr %4, align 8
  %10 = call noundef nonnull align 8 dereferenceable(8) ptr @_ZNK32pxrInternal_v0_24__pxrReserved__7GfVec3dixEm(ptr noundef nonnull align 8 dereferenceable(24) %9, i64 noundef 0)
  %11 = load double, ptr %10, align 8
  %12 = getelementptr inbounds nuw %"class.pxrInternal_v0_24__pxrReserved__::GfVec3d", ptr %5, i32 0, i32 0
  %13 = getelementptr inbounds [3 x double], ptr %12, i64 0, i64 1
  %14 = load double, ptr %13, align 8
  %15 = load ptr, ptr %4, align 8
  %16 = call noundef nonnull align 8 dereferenceable(8) ptr @_ZNK32pxrInternal_v0_24__pxrReserved__7GfVec3dixEm(ptr noundef nonnull align 8 dereferenceable(24) %15, i64 noundef 1)
  %17 = load double, ptr %16, align 8
  %18 = fmul double %14, %17
  %19 = call double @llvm.fmuladd.f64(double %8, double %11, double %18)
  %20 = getelementptr inbounds nuw %"class.pxrInternal_v0_24__pxrReserved__::GfVec3d", ptr %5, i32 0, i32 0
  %21 = getelementptr inbounds [3 x double], ptr %20, i64 0, i64 2
  %22 = load double, ptr %21, align 8
  %23 = load ptr, ptr %4, align 8
  %24 = call noundef nonnull align 8 dereferenceable(8) ptr @_ZNK32pxrInternal_v0_24__pxrReserved__7GfVec3dixEm(ptr noundef nonnull align 8 dereferenceable(24) %23, i64 noundef 2)
  %25 = load double, ptr %24, align 8
  %26 = call double @llvm.fmuladd.f64(double %22, double %25, double %19)
  ret double %26
}

; Function Attrs: mustprogress nounwind uwtable
define linkonce_odr noundef nonnull align 8 dereferenceable(24) ptr @_ZNK32pxrInternal_v0_24__pxrReserved__7GfPlane9GetNormalEv(ptr noundef nonnull align 8 dereferenceable(32) %0) #2 comdat align 2 {
  %2 = alloca ptr, align 8
  store ptr %0, ptr %2, align 8
  %3 = load ptr, ptr %2, align 8
  %4 = getelementptr inbounds nuw %"class.pxrInternal_v0_24__pxrReserved__::GfPlane", ptr %3, i32 0, i32 0
  ret ptr %4
}

; Function Attrs: mustprogress uwtable
define linkonce_odr noundef double @_ZNK32pxrInternal_v0_24__pxrReserved__7GfPlane11GetDistanceERKNS_7GfVec3dE(ptr noundef nonnull align 8 dereferenceable(32) %0, ptr noundef nonnull align 8 dereferenceable(24) %1) #0 comdat align 2 {
  %3 = alloca ptr, align 8
  %4 = alloca ptr, align 8
  store ptr %0, ptr %3, align 8
  store ptr %1, ptr %4, align 8
  %5 = load ptr, ptr %3, align 8
  %6 = load ptr, ptr %4, align 8
  %7 = getelementptr inbounds nuw %"class.pxrInternal_v0_24__pxrReserved__::GfPlane", ptr %5, i32 0, i32 0
  %8 = call noundef double @_ZNK32pxrInternal_v0_24__pxrReserved__7GfVec3dmlERKS0_(ptr noundef nonnull align 8 dereferenceable(24) %6, ptr noundef nonnull align 8 dereferenceable(24) %7)
  %9 = getelementptr inbounds nuw %"class.pxrInternal_v0_24__pxrReserved__::GfPlane", ptr %5, i32 0, i32 1
  %10 = load double, ptr %9, align 8
  %11 = fsub double %8, %10
  ret double %11
}

; Function Attrs: mustprogress nounwind uwtable
define linkonce_odr noundef nonnull align 8 dereferenceable(32) ptr @_ZNKSt5arrayIN32pxrInternal_v0_24__pxrReserved__7GfPlaneELm6EEixEm(ptr noundef nonnull align 8 dereferenceable(192) %0, i64 noundef %1) #2 comdat align 2 {
  %3 = alloca ptr, align 8
  %4 = alloca i64, align 8
  store ptr %0, ptr %3, align 8
  store i64 %1, ptr %4, align 8
  %5 = load ptr, ptr %3, align 8
  %6 = getelementptr inbounds nuw %"struct.std::array", ptr %5, i32 0, i32 0
  %7 = load i64, ptr %4, align 8
  %8 = call noundef nonnull align 8 dereferenceable(32) ptr @_ZNSt14__array_traitsIN32pxrInternal_v0_24__pxrReserved__7GfPlaneELm6EE6_S_refERA6_KS1_m(ptr noundef nonnull align 8 dereferenceable(192) %6, i64 noundef %7) #11
  ret ptr %8
}

; Function Attrs: mustprogress nounwind willreturn memory(none) uwtable
define linkonce_odr noundef i64 @_ZNKSt5arrayIN32pxrInternal_v0_24__pxrReserved__7GfPlaneELm6EE4sizeEv(ptr noundef nonnull align 8 dereferenceable(192) %0) #8 comdat align 2 {
  %2 = alloca ptr, align 8
  store ptr %0, ptr %2, align 8
  ret i64 6
}

; Function Attrs: mustprogress nounwind uwtable
define linkonce_odr noundef ptr @_ZNKSt6atomicIPSt5arrayIN32pxrInternal_v0_24__pxrReserved__7GfPlaneELm6EEEcvS4_Ev(ptr noundef nonnull align 8 dereferenceable(8) %0) #2 comdat align 2 {
  %2 = alloca ptr, align 8
  store ptr %0, ptr %2, align 8
  %3 = load ptr, ptr %2, align 8
  %4 = getelementptr inbounds nuw %"struct.std::atomic", ptr %3, i32 0, i32 0
  %5 = call noundef ptr @_ZNKSt13__atomic_baseIPSt5arrayIN32pxrInternal_v0_24__pxrReserved__7GfPlaneELm6EEEcvS4_Ev(ptr noundef nonnull align 8 dereferenceable(8) %4) #11
  ret ptr %5
}

; Function Attrs: mustprogress uwtable
define linkonce_odr void @_ZN32pxrInternal_v0_24__pxrReserved__miERKNS_7GfVec3dES2_(ptr dead_on_unwind noalias writable sret(%"class.pxrInternal_v0_24__pxrReserved__::GfVec3d") align 8 %0, ptr noundef nonnull align 8 dereferenceable(24) %1, ptr noundef nonnull align 8 dereferenceable(24) %2) #0 comdat {
  %4 = alloca ptr, align 8
  %5 = alloca ptr, align 8
  %6 = alloca %"class.pxrInternal_v0_24__pxrReserved__::GfVec3d", align 8
  store ptr %1, ptr %4, align 8
  store ptr %2, ptr %5, align 8
  %7 = load ptr, ptr %5, align 8
  %8 = load ptr, ptr %4, align 8
  call void @llvm.memcpy.p0.p0.i64(ptr align 8 %6, ptr align 8 %8, i64 24, i1 false)
  %9 = call noundef nonnull align 8 dereferenceable(24) ptr @_ZN32pxrInternal_v0_24__pxrReserved__7GfVec3dmIERKS0_(ptr noundef nonnull align 8 dereferenceable(24) %6, ptr noundef nonnull align 8 dereferenceable(24) %7)
  call void @llvm.memcpy.p0.p0.i64(ptr align 8 %0, ptr align 8 %9, i64 24, i1 false)
  ret void
}

; Function Attrs: mustprogress uwtable
define noundef zeroext i1 @_ZNK32pxrInternal_v0_24__pxrReserved__9GfFrustum18_SegmentIntersectsERKNS_7GfVec3dEjS3_j(ptr noundef nonnull align 8 dereferenceable(128) %0, ptr noundef nonnull align 8 dereferenceable(24) %1, i32 noundef %2, ptr noundef nonnull align 8 dereferenceable(24) %3, i32 noundef %4) #0 align 2 {
  %6 = alloca i1, align 1
  %7 = alloca ptr, align 8
  %8 = alloca ptr, align 8
  %9 = alloca i32, align 4
  %10 = alloca ptr, align 8
  %11 = alloca i32, align 4
  %12 = alloca double, align 8
  %13 = alloca double, align 8
  %14 = alloca %"class.pxrInternal_v0_24__pxrReserved__::GfVec3d", align 8
  %15 = alloca ptr, align 8
  %16 = alloca i64, align 8
  %17 = alloca ptr, align 8
  %18 = alloca i32, align 4
  %19 = alloca i32, align 4
  %20 = alloca i32, align 4
  %21 = alloca double, align 8
  store ptr %0, ptr %7, align 8
  store ptr %1, ptr %8, align 8
  store i32 %2, ptr %9, align 4
  store ptr %3, ptr %10, align 8
  store i32 %4, ptr %11, align 4
  %22 = load ptr, ptr %7, align 8
  %23 = load i32, ptr %9, align 4
  %24 = load i32, ptr %11, align 4
  %25 = or i32 %23, %24
  %26 = icmp ne i32 %25, 63
  br i1 %26, label %27, label %28

27:                                               ; preds = %5
  store i1 false, ptr %6, align 1
  br label %97

28:                                               ; preds = %5
  %29 = load i32, ptr %9, align 4
  %30 = icmp eq i32 %29, 63
  br i1 %30, label %34, label %31

31:                                               ; preds = %28
  %32 = load i32, ptr %11, align 4
  %33 = icmp eq i32 %32, 63
  br i1 %33, label %34, label %35

34:                                               ; preds = %31, %28
  store i1 true, ptr %6, align 1
  br label %97

35:                                               ; preds = %31
  store double 0.000000e+00, ptr %12, align 8
  store double 1.000000e+00, ptr %13, align 8
  %36 = load ptr, ptr %10, align 8
  %37 = load ptr, ptr %8, align 8
  call void @_ZN32pxrInternal_v0_24__pxrReserved__miERKNS_7GfVec3dES2_(ptr dead_on_unwind writable sret(%"class.pxrInternal_v0_24__pxrReserved__::GfVec3d") align 8 %14, ptr noundef nonnull align 8 dereferenceable(24) %36, ptr noundef nonnull align 8 dereferenceable(24) %37)
  %38 = getelementptr inbounds nuw %"class.pxrInternal_v0_24__pxrReserved__::GfFrustum", ptr %22, i32 0, i32 6
  %39 = call noundef ptr @_ZNKSt6atomicIPSt5arrayIN32pxrInternal_v0_24__pxrReserved__7GfPlaneELm6EEEcvS4_Ev(ptr noundef nonnull align 8 dereferenceable(8) %38) #11
  store ptr %39, ptr %15, align 8
  store i64 0, ptr %16, align 8
  br label %40

40:                                               ; preds = %93, %35
  %41 = load i64, ptr %16, align 8
  %42 = load ptr, ptr %15, align 8
  %43 = call noundef i64 @_ZNKSt5arrayIN32pxrInternal_v0_24__pxrReserved__7GfPlaneELm6EE4sizeEv(ptr noundef nonnull align 8 dereferenceable(192) %42) #18
  %44 = icmp ult i64 %41, %43
  br i1 %44, label %45, label %96

45:                                               ; preds = %40
  %46 = load ptr, ptr %15, align 8
  %47 = load i64, ptr %16, align 8
  %48 = call noundef nonnull align 8 dereferenceable(32) ptr @_ZNKSt5arrayIN32pxrInternal_v0_24__pxrReserved__7GfPlaneELm6EEixEm(ptr noundef nonnull align 8 dereferenceable(192) %46, i64 noundef %47) #11
  store ptr %48, ptr %17, align 8
  %49 = load i64, ptr %16, align 8
  %50 = trunc i64 %49 to i32
  %51 = shl i32 1, %50
  store i32 %51, ptr %18, align 4
  %52 = load i32, ptr %9, align 4
  %53 = load i32, ptr %18, align 4
  %54 = and i32 %52, %53
  store i32 %54, ptr %19, align 4
  %55 = load i32, ptr %11, align 4
  %56 = load i32, ptr %18, align 4
  %57 = and i32 %55, %56
  store i32 %57, ptr %20, align 4
  %58 = load i32, ptr %19, align 4
  %59 = load i32, ptr %20, align 4
  %60 = icmp eq i32 %58, %59
  br i1 %60, label %61, label %62

61:                                               ; preds = %45
  br label %93

62:                                               ; preds = %45
  %63 = load ptr, ptr %17, align 8
  %64 = load ptr, ptr %8, align 8
  %65 = call noundef double @_ZNK32pxrInternal_v0_24__pxrReserved__7GfPlane11GetDistanceERKNS_7GfVec3dE(ptr noundef nonnull align 8 dereferenceable(32) %63, ptr noundef nonnull align 8 dereferenceable(24) %64)
  %66 = fneg double %65
  %67 = load ptr, ptr %17, align 8
  %68 = call noundef nonnull align 8 dereferenceable(24) ptr @_ZNK32pxrInternal_v0_24__pxrReserved__7GfPlane9GetNormalEv(ptr noundef nonnull align 8 dereferenceable(32) %67)
  %69 = call noundef double @_ZNK32pxrInternal_v0_24__pxrReserved__7GfVec3dmlERKS0_(ptr noundef nonnull align 8 dereferenceable(24) %68, ptr noundef nonnull align 8 dereferenceable(24) %14)
  %70 = fdiv double %66, %69
  store double %70, ptr %21, align 8
  %71 = load i32, ptr %19, align 4
  %72 = icmp ne i32 %71, 0
  br i1 %72, label %73, label %80

73:                                               ; preds = %62
  %74 = load double, ptr %21, align 8
  %75 = load double, ptr %13, align 8
  %76 = fcmp olt double %74, %75
  br i1 %76, label %77, label %79

77:                                               ; preds = %73
  %78 = load double, ptr %21, align 8
  store double %78, ptr %13, align 8
  br label %79

79:                                               ; preds = %77, %73
  br label %87

80:                                               ; preds = %62
  %81 = load double, ptr %21, align 8
  %82 = load double, ptr %12, align 8
  %83 = fcmp ogt double %81, %82
  br i1 %83, label %84, label %86

84:                                               ; preds = %80
  %85 = load double, ptr %21, align 8
  store double %85, ptr %12, align 8
  br label %86

86:                                               ; preds = %84, %80
  br label %87

87:                                               ; preds = %86, %79
  %88 = load double, ptr %12, align 8
  %89 = load double, ptr %13, align 8
  %90 = fcmp ogt double %88, %89
  br i1 %90, label %91, label %92

91:                                               ; preds = %87
  store i1 false, ptr %6, align 1
  br label %97

92:                                               ; preds = %87
  br label %93

93:                                               ; preds = %92, %61
  %94 = load i64, ptr %16, align 8
  %95 = add i64 %94, 1
  store i64 %95, ptr %16, align 8
  br label %40, !llvm.loop !8

96:                                               ; preds = %40
  store i1 true, ptr %6, align 1
  br label %97

97:                                               ; preds = %96, %91, %34, %27
  %98 = load i1, ptr %6, align 1
  ret i1 %98
}