; Function Attrs: mustprogress nofree norecurse nounwind memory(read, argmem: readwrite, inaccessiblemem: none) uwtable
define noundef zeroext i1 @_ZNK32pxrInternal_v0_24__pxrReserved__9GfFrustum18_SegmentIntersectsERKNS_7GfVec3dEjS3_j(ptr nocapture noundef nonnull readonly align 8 dereferenceable(128) %0, ptr nocapture noundef nonnull readonly align 8 dereferenceable(24) %1, i32 noundef %2, ptr nocapture noundef nonnull readonly align 8 dereferenceable(24) %3, i32 noundef %4) local_unnamed_addr #11 align 2 {
  %6 = or i32 %4, %2
  %.not = icmp eq i32 %6, 63
  br i1 %.not, label %7, label %.loopexit

7:                                                ; preds = %5
  %8 = icmp eq i32 %2, 63
  %9 = icmp eq i32 %4, 63
  %or.cond = or i1 %8, %9
  br i1 %or.cond, label %.loopexit, label %10

10:                                               ; preds = %7
  %.sroa.0.0.copyload.i = load double, ptr %3, align 8, !noalias !177
  %.sroa.4.0..sroa_idx.i = getelementptr inbounds i8, ptr %3, i64 8
  %.sroa.4.0.copyload.i = load double, ptr %.sroa.4.0..sroa_idx.i, align 8, !noalias !177
  %.sroa.6.0..sroa_idx.i = getelementptr inbounds i8, ptr %3, i64 16
  %.sroa.6.0.copyload.i = load double, ptr %.sroa.6.0..sroa_idx.i, align 8, !noalias !177
  %11 = load double, ptr %1, align 8, !noalias !177
  %12 = fsub double %.sroa.0.0.copyload.i, %11
  %13 = getelementptr inbounds i8, ptr %1, i64 8
  %14 = load double, ptr %13, align 8, !noalias !177
  %15 = fsub double %.sroa.4.0.copyload.i, %14
  %16 = getelementptr inbounds i8, ptr %1, i64 16
  %17 = load double, ptr %16, align 8, !noalias !177
  %18 = fsub double %.sroa.6.0.copyload.i, %17
  %19 = getelementptr inbounds nuw i8, ptr %0, i64 120
  %20 = load atomic i64, ptr %19 seq_cst, align 8
  %21 = inttoptr i64 %20 to ptr
  %22 = load double, ptr %1, align 8
  %23 = load double, ptr %13, align 8
  %24 = load double, ptr %16, align 8
  br label %25

25:                                               ; preds = %10, %57
  %.03245 = phi double [ 0.000000e+00, %10 ], [ %.1, %57 ]
  %.03344 = phi double [ 1.000000e+00, %10 ], [ %.134, %57 ]
  %.03643 = phi i64 [ 0, %10 ], [ %58, %57 ]
  %26 = trunc nuw i64 %.03643 to i32
  %27 = shl nuw nsw i32 1, %26
  %28 = and i32 %27, %2
  %29 = and i32 %27, %4
  %30 = icmp eq i32 %28, %29
  br i1 %30, label %57, label %31

31:                                               ; preds = %25
  %32 = getelementptr inbounds [6 x %"class.pxrInternal_v0_24__pxrReserved__::GfPlane"], ptr %21, i64 0, i64 %.03643
  %33 = load double, ptr %32, align 8
  %34 = getelementptr inbounds i8, ptr %32, i64 8
  %35 = load double, ptr %34, align 8
  %36 = fmul double %23, %35
  %37 = tail call double @llvm.fmuladd.f64(double %22, double %33, double %36)
  %38 = getelementptr inbounds i8, ptr %32, i64 16
  %39 = load double, ptr %38, align 8
  %40 = tail call noundef double @llvm.fmuladd.f64(double %24, double %39, double %37)
  %41 = getelementptr inbounds nuw i8, ptr %32, i64 24
  %42 = load double, ptr %41, align 8
  %43 = fsub double %40, %42
  %44 = fneg double %43
  %45 = fmul double %15, %35
  %46 = tail call double @llvm.fmuladd.f64(double %33, double %12, double %45)
  %47 = tail call noundef double @llvm.fmuladd.f64(double %39, double %18, double %46)
  %48 = fdiv double %44, %47
  %.not42 = icmp eq i32 %28, 0
  br i1 %.not42, label %52, label %49

49:                                               ; preds = %31
  %50 = fcmp olt double %48, %.03344
  br i1 %50, label %51, label %55

51:                                               ; preds = %49
  br label %55

52:                                               ; preds = %31
  %53 = fcmp ogt double %48, %.03245
  br i1 %53, label %54, label %55

54:                                               ; preds = %52
  br label %55

55:                                               ; preds = %52, %54, %49, %51
  %.235 = phi double [ %48, %51 ], [ %.03344, %49 ], [ %.03344, %54 ], [ %.03344, %52 ]
  %.2 = phi double [ %.03245, %51 ], [ %.03245, %49 ], [ %48, %54 ], [ %.03245, %52 ]
  %56 = fcmp ogt double %.2, %.235
  br i1 %56, label %.loopexit, label %57

57:                                               ; preds = %55, %25
  %.134 = phi double [ %.03344, %25 ], [ %.235, %55 ]
  %.1 = phi double [ %.03245, %25 ], [ %.2, %55 ]
  %58 = add nuw nsw i64 %.03643, 1
  %exitcond.not = icmp eq i64 %58, 6
  br i1 %exitcond.not, label %.loopexit, label %25, !llvm.loop !180

.loopexit:                                        ; preds = %57, %55, %7, %5
  %.0 = phi i1 [ false, %5 ], [ true, %7 ], [ true, %57 ], [ false, %55 ]
  ret i1 %.0
}